target datalayout = "e-m:e-p270:32:32-p271:32:32-p272:64:64-i64:64-i128:128-f80:128-n8:16:32:64-S128"
target triple = "x86_64-unknown-linux-gnu"

%struct.MSIMessage = type { i64, i32 }
%struct.PCIDevice = type { %struct.DeviceState, i8, i8, ptr, ptr, ptr, ptr, ptr, i32, %struct.PCIReqIDCache, [64 x i8], [7 x %struct.PCIIORegion], %struct.AddressSpace, %struct.MemoryRegion, %struct.MemoryRegion, ptr, ptr, [3 x ptr], i8, i8, i32, i8, i32, ptr, ptr, ptr, ptr, ptr, ptr, %struct.MemoryRegion, %struct.MemoryRegion, %struct.MemoryRegion, ptr, i8, i32, i8, %struct.PCIExpressDevice, ptr, ptr, i32, i8, %struct.MemoryRegion, i32, ptr, ptr, ptr, ptr, ptr, i32 }
%struct.DeviceState = type { %struct.Object, ptr, ptr, i8, i8, i64, ptr, i32, i8, ptr, %struct.NamedGPIOListHead, %struct.NamedClockListHead, %struct.BusStateHead, i32, i32, i32, %struct.ResettableState, ptr, %struct.MemReentrancyGuard }
%struct.Object = type { ptr, ptr, ptr, i32, ptr }
%struct.NamedGPIOListHead = type { ptr }
%struct.NamedClockListHead = type { ptr }
%struct.BusStateHead = type { ptr }
%struct.ResettableState = type { i32, i8, i8 }
%struct.MemReentrancyGuard = type { i8 }
%struct.PCIReqIDCache = type { ptr, i32 }
%struct.PCIIORegion = type { i64, i64, i8, ptr, ptr }
%struct.AddressSpace = type { %struct.rcu_head, ptr, ptr, ptr, i32, i32, ptr, %union.anon, %union.anon.0 }
%struct.rcu_head = type { ptr, ptr }
%union.anon = type { %struct.QTailQLink }
%struct.QTailQLink = type { ptr, ptr }
%union.anon.0 = type { %struct.QTailQLink }
%struct.PCIExpressDevice = type { i8, i8, i8, i16, %struct.PCIEAERLog, i16, i16, i16, %struct.PCIESriovPF, %struct.PCIESriovVF }
%struct.PCIEAERLog = type { i16, i16, ptr }
%struct.PCIESriovPF = type { i16, [7 x i8], ptr, ptr }
%struct.PCIESriovVF = type { ptr, i16 }
%struct.MemoryRegion = type { %struct.Object, i8, i8, i8, i8, i8, i8, i8, i8, i8, i8, ptr, ptr, ptr, ptr, ptr, ptr, i32, i128, i64, ptr, i64, i8, i8, i8, i8, i8, ptr, i64, i32, %union.anon.1, %union.anon.2, %union.anon.3, ptr, i32, ptr, ptr, i8 }
%union.anon.1 = type { %struct.QTailQLink }
%union.anon.2 = type { %struct.QTailQLink }
%union.anon.3 = type { %struct.QTailQLink }

@.str.1 = private unnamed_addr constant [22 x i8] c"../qemu/hw/pci/msix.c\00", align 1
@xen_allowed = external global i8, align 1
@xen_mode = external global i32, align 4
@.str.11 = private unnamed_addr constant [9 x i8] c"ret >= 0\00", align 1
@__PRETTY_FUNCTION__.msix_fire_vector_notifier = private unnamed_addr constant [65 x i8] c"void msix_fire_vector_notifier(PCIDevice *, unsigned int, _Bool)\00", align 1

; Function Attrs: nounwind sspstrong uwtable
define internal i32 @ldl_he_p(ptr noundef %ptr) #0 {
entry:
  %ptr.addr = alloca ptr, align 8
  %r = alloca i32, align 4
  store ptr %ptr, ptr %ptr.addr, align 8
  %0 = load ptr, ptr %ptr.addr, align 8
  call void @llvm.memcpy.p0.p0.i64(ptr align 4 %r, ptr align 1 %0, i64 4, i1 false)
  %1 = load i32, ptr %r, align 4
  ret i32 %1
}

; Function Attrs: nounwind sspstrong uwtable
define internal i64 @ldq_he_p(ptr noundef %ptr) #0 {
entry:
  %ptr.addr = alloca ptr, align 8
  %r = alloca i64, align 8
  store ptr %ptr, ptr %ptr.addr, align 8
  %0 = load ptr, ptr %ptr.addr, align 8
  call void @llvm.memcpy.p0.p0.i64(ptr align 8 %r, ptr align 1 %0, i64 8, i1 false)
  %1 = load i64, ptr %r, align 8
  ret i64 %1
}

; Function Attrs: nounwind sspstrong uwtable
define internal i32 @ldl_le_p(ptr noundef %ptr) #0 {
entry:
  %ptr.addr = alloca ptr, align 8
  store ptr %ptr, ptr %ptr.addr, align 8
  %0 = load ptr, ptr %ptr.addr, align 8
  %call = call i32 @ldl_he_p(ptr noundef %0)
  ret i32 %call
}

; Function Attrs: nounwind sspstrong uwtable
define internal i64 @ldq_le_p(ptr noundef %ptr) #0 {
entry:
  %ptr.addr = alloca ptr, align 8
  store ptr %ptr, ptr %ptr.addr, align 8
  %0 = load ptr, ptr %ptr.addr, align 8
  %call = call i64 @ldq_he_p(ptr noundef %0)
  ret i64 %call
}

; Function Attrs: nounwind sspstrong uwtable
define internal zeroext i8 @msix_pending_mask(i32 noundef %vector) #0 {
entry:
  %vector.addr = alloca i32, align 4
  store i32 %vector, ptr %vector.addr, align 4
  %0 = load i32, ptr %vector.addr, align 4
  %rem = srem i32 %0, 8
  %shl = shl i32 1, %rem
  %conv = trunc i32 %shl to i8
  ret i8 %conv
}

; Function Attrs: nounwind sspstrong uwtable
define internal ptr @msix_pending_byte(ptr noundef %dev, i32 noundef %vector) #0 {
entry:
  %dev.addr = alloca ptr, align 8
  %vector.addr = alloca i32, align 4
  store ptr %dev, ptr %dev.addr, align 8
  store i32 %vector, ptr %vector.addr, align 4
  %0 = load ptr, ptr %dev.addr, align 8
  %msix_pba = getelementptr inbounds %struct.PCIDevice, ptr %0, i32 0, i32 24
  %1 = load ptr, ptr %msix_pba, align 16
  %2 = load i32, ptr %vector.addr, align 4
  %div = sdiv i32 %2, 8
  %idx.ext = sext i32 %div to i64
  %add.ptr = getelementptr i8, ptr %1, i64 %idx.ext
  ret ptr %add.ptr
}

; Function Attrs: nounwind sspstrong uwtable
define dso_local { i64, i32 } @msix_get_message(ptr noundef %dev, i32 noundef %vector) #0 {
entry:
  %retval = alloca %struct.MSIMessage, align 8
  %dev.addr = alloca ptr, align 8
  %vector.addr = alloca i32, align 4
  store ptr %dev, ptr %dev.addr, align 8
  store i32 %vector, ptr %vector.addr, align 4
  %0 = load ptr, ptr %dev.addr, align 8
  %msix_prepare_message = getelementptr inbounds %struct.PCIDevice, ptr %0, i32 0, i32 28
  %1 = load ptr, ptr %msix_prepare_message, align 16
  %2 = load ptr, ptr %dev.addr, align 8
  %3 = load i32, ptr %vector.addr, align 4
  %call = call { i64, i32 } %1(ptr noundef %2, i32 noundef %3)
  %4 = getelementptr inbounds { i64, i32 }, ptr %retval, i32 0, i32 0
  %5 = extractvalue { i64, i32 } %call, 0
  store i64 %5, ptr %4, align 8
  %6 = getelementptr inbounds { i64, i32 }, ptr %retval, i32 0, i32 1
  %7 = extractvalue { i64, i32 } %call, 1
  store i32 %7, ptr %6, align 8
  %8 = load { i64, i32 }, ptr %retval, align 8
  ret { i64, i32 } %8
}

; Function Attrs: nounwind sspstrong uwtable
define internal i32 @pci_get_long(ptr noundef %config) #0 {
entry:
  %config.addr = alloca ptr, align 8
  store ptr %config, ptr %config.addr, align 8
  %0 = load ptr, ptr %config.addr, align 8
  %call = call i32 @ldl_le_p(ptr noundef %0)
  ret i32 %call
}

; Function Attrs: nounwind sspstrong uwtable
define internal i64 @pci_get_quad(ptr noundef %config) #0 {
entry:
  %config.addr = alloca ptr, align 8
  store ptr %config, ptr %config.addr, align 8
  %0 = load ptr, ptr %config.addr, align 8
  %call = call i64 @ldq_le_p(ptr noundef %0)
  ret i64 %call
}

; Function Attrs: nounwind sspstrong uwtable
define internal zeroext i1 @msix_vector_masked(ptr noundef %dev, i32 noundef %vector, i1 noundef zeroext %fmask) #0 {
entry:
  %retval = alloca i1, align 1
  %dev.addr = alloca ptr, align 8
  %vector.addr = alloca i32, align 4
  %fmask.addr = alloca i8, align 1
  %offset = alloca i32, align 4
  %data = alloca ptr, align 8
  store ptr %dev, ptr %dev.addr, align 8
  store i32 %vector, ptr %vector.addr, align 4
  %frombool = zext i1 %fmask to i8
  store i8 %frombool, ptr %fmask.addr, align 1
  %0 = load i32, ptr %vector.addr, align 4
  %mul = mul i32 %0, 16
  store i32 %mul, ptr %offset, align 4
  %1 = load ptr, ptr %dev.addr, align 8
  %msix_table = getelementptr inbounds %struct.PCIDevice, ptr %1, i32 0, i32 23
  %2 = load ptr, ptr %msix_table, align 8
  %3 = load i32, ptr %offset, align 4
  %add = add i32 %3, 8
  %idxprom = zext i32 %add to i64
  %arrayidx = getelementptr i8, ptr %2, i64 %idxprom
  store ptr %arrayidx, ptr %data, align 8
  %4 = load i8, ptr @xen_allowed, align 1
  %tobool = trunc i8 %4 to i1
  br i1 %tobool, label %land.lhs.true, label %if.end

land.lhs.true:                                    ; preds = %entry
  %5 = load ptr, ptr %data, align 8
  %call = call i32 @pci_get_long(ptr noundef %5)
  %call1 = call i32 @xen_is_pirq_msi(i32 noundef %call)
  %tobool2 = icmp ne i32 %call1, 0
  br i1 %tobool2, label %if.then, label %if.end

if.then:                                          ; preds = %land.lhs.true
  store i1 false, ptr %retval, align 1
  br label %return

if.end:                                           ; preds = %land.lhs.true, %entry
  %6 = load i8, ptr %fmask.addr, align 1
  %tobool3 = trunc i8 %6 to i1
  br i1 %tobool3, label %lor.end, label %lor.rhs

lor.rhs:                                          ; preds = %if.end
  %7 = load ptr, ptr %dev.addr, align 8
  %msix_table4 = getelementptr inbounds %struct.PCIDevice, ptr %7, i32 0, i32 23
  %8 = load ptr, ptr %msix_table4, align 8
  %9 = load i32, ptr %offset, align 4
  %add5 = add i32 %9, 12
  %idxprom6 = zext i32 %add5 to i64
  %arrayidx7 = getelementptr i8, ptr %8, i64 %idxprom6
  %10 = load i8, ptr %arrayidx7, align 1
  %conv = zext i8 %10 to i32
  %and = and i32 %conv, 1
  %tobool8 = icmp ne i32 %and, 0
  br label %lor.end

lor.end:                                          ; preds = %lor.rhs, %if.end
  %11 = phi i1 [ true, %if.end ], [ %tobool8, %lor.rhs ]
  store i1 %11, ptr %retval, align 1
  br label %return

return:                                           ; preds = %lor.end, %if.then
  %12 = load i1, ptr %retval, align 1
  ret i1 %12
}

; Function Attrs: nounwind sspstrong uwtable
define dso_local void @msix_clr_pending(ptr noundef %dev, i32 noundef %vector) #0 {
entry:
  %dev.addr = alloca ptr, align 8
  %vector.addr = alloca i32, align 4
  store ptr %dev, ptr %dev.addr, align 8
  store i32 %vector, ptr %vector.addr, align 4
  %0 = load i32, ptr %vector.addr, align 4
  %call = call zeroext i8 @msix_pending_mask(i32 noundef %0)
  %conv = zext i8 %call to i32
  %not = xor i32 %conv, -1
  %1 = load ptr, ptr %dev.addr, align 8
  %2 = load i32, ptr %vector.addr, align 4
  %call1 = call ptr @msix_pending_byte(ptr noundef %1, i32 noundef %2)
  %3 = load i8, ptr %call1, align 1
  %conv2 = zext i8 %3 to i32
  %and = and i32 %conv2, %not
  %conv3 = trunc i32 %and to i8
  store i8 %conv3, ptr %call1, align 1
  ret void
}

; Function Attrs: nounwind sspstrong uwtable
define internal i32 @msix_is_pending(ptr noundef %dev, i32 noundef %vector) #0 {
entry:
  %dev.addr = alloca ptr, align 8
  %vector.addr = alloca i32, align 4
  store ptr %dev, ptr %dev.addr, align 8
  store i32 %vector, ptr %vector.addr, align 4
  %0 = load ptr, ptr %dev.addr, align 8
  %1 = load i32, ptr %vector.addr, align 4
  %call = call ptr @msix_pending_byte(ptr noundef %0, i32 noundef %1)
  %2 = load i8, ptr %call, align 1
  %conv = zext i8 %2 to i32
  %3 = load i32, ptr %vector.addr, align 4
  %call1 = call zeroext i8 @msix_pending_mask(i32 noundef %3)
  %conv2 = zext i8 %call1 to i32
  %and = and i32 %conv, %conv2
  ret i32 %and
}

; Function Attrs: nounwind sspstrong uwtable
define internal void @msix_fire_vector_notifier(ptr noundef %dev, i32 noundef %vector, i1 noundef zeroext %is_masked) #0 {
entry:
  %dev.addr = alloca ptr, align 8
  %vector.addr = alloca i32, align 4
  %is_masked.addr = alloca i8, align 1
  %msg = alloca %struct.MSIMessage, align 8
  %ret = alloca i32, align 4
  %tmp = alloca %struct.MSIMessage, align 8
  store ptr %dev, ptr %dev.addr, align 8
  store i32 %vector, ptr %vector.addr, align 4
  %frombool = zext i1 %is_masked to i8
  store i8 %frombool, ptr %is_masked.addr, align 1
  %0 = load ptr, ptr %dev.addr, align 8
  %msix_vector_use_notifier = getelementptr inbounds %struct.PCIDevice, ptr %0, i32 0, i32 44
  %1 = load ptr, ptr %msix_vector_use_notifier, align 16
  %tobool = icmp ne ptr %1, null
  br i1 %tobool, label %if.end, label %if.then

if.then:                                          ; preds = %entry
  br label %if.end8

if.end:                                           ; preds = %entry
  %2 = load i8, ptr %is_masked.addr, align 1
  %tobool1 = trunc i8 %2 to i1
  br i1 %tobool1, label %if.then2, label %if.else

if.then2:                                         ; preds = %if.end
  %3 = load ptr, ptr %dev.addr, align 8
  %msix_vector_release_notifier = getelementptr inbounds %struct.PCIDevice, ptr %3, i32 0, i32 45
  %4 = load ptr, ptr %msix_vector_release_notifier, align 8
  %5 = load ptr, ptr %dev.addr, align 8
  %6 = load i32, ptr %vector.addr, align 4
  call void %4(ptr noundef %5, i32 noundef %6)
  br label %if.end8

if.else:                                          ; preds = %if.end
  %7 = load ptr, ptr %dev.addr, align 8
  %8 = load i32, ptr %vector.addr, align 4
  %call = call { i64, i32 } @msix_get_message(ptr noundef %7, i32 noundef %8)
  %9 = getelementptr inbounds { i64, i32 }, ptr %tmp, i32 0, i32 0
  %10 = extractvalue { i64, i32 } %call, 0
  store i64 %10, ptr %9, align 8
  %11 = getelementptr inbounds { i64, i32 }, ptr %tmp, i32 0, i32 1
  %12 = extractvalue { i64, i32 } %call, 1
  store i32 %12, ptr %11, align 8
  call void @llvm.memcpy.p0.p0.i64(ptr align 8 %msg, ptr align 8 %tmp, i64 16, i1 false)
  %13 = load ptr, ptr %dev.addr, align 8
  %msix_vector_use_notifier3 = getelementptr inbounds %struct.PCIDevice, ptr %13, i32 0, i32 44
  %14 = load ptr, ptr %msix_vector_use_notifier3, align 16
  %15 = load ptr, ptr %dev.addr, align 8
  %16 = load i32, ptr %vector.addr, align 4
  %17 = getelementptr inbounds { i64, i32 }, ptr %msg, i32 0, i32 0
  %18 = load i64, ptr %17, align 8
  %19 = getelementptr inbounds { i64, i32 }, ptr %msg, i32 0, i32 1
  %20 = load i32, ptr %19, align 8
  %call4 = call i32 %14(ptr noundef %15, i32 noundef %16, i64 %18, i32 %20)
  store i32 %call4, ptr %ret, align 4
  %21 = load i32, ptr %ret, align 4
  %cmp = icmp sge i32 %21, 0
  br i1 %cmp, label %if.then5, label %if.else6

if.then5:                                         ; preds = %if.else
  br label %if.end7

if.else6:                                         ; preds = %if.else
  call void @__assert_fail(ptr noundef @.str.11, ptr noundef @.str.1, i32 noundef 121, ptr noundef @__PRETTY_FUNCTION__.msix_fire_vector_notifier) #8
  unreachable

if.end7:                                          ; preds = %if.then5
  br label %if.end8

if.end8:                                          ; preds = %if.end7, %if.then2, %if.then
  ret void
}

; Function Attrs: nounwind sspstrong uwtable
define internal { i64, i32 } @msix_prepare_message(ptr noundef %dev, i32 noundef %vector) #0 {
entry:
  %retval = alloca %struct.MSIMessage, align 8
  %dev.addr = alloca ptr, align 8
  %vector.addr = alloca i32, align 4
  %table_entry = alloca ptr, align 8
  store ptr %dev, ptr %dev.addr, align 8
  store i32 %vector, ptr %vector.addr, align 4
  %0 = load ptr, ptr %dev.addr, align 8
  %msix_table = getelementptr inbounds %struct.PCIDevice, ptr %0, i32 0, i32 23
  %1 = load ptr, ptr %msix_table, align 8
  %2 = load i32, ptr %vector.addr, align 4
  %mul = mul i32 %2, 16
  %idx.ext = zext i32 %mul to i64
  %add.ptr = getelementptr i8, ptr %1, i64 %idx.ext
  store ptr %add.ptr, ptr %table_entry, align 8
  %3 = load ptr, ptr %table_entry, align 8
  %add.ptr1 = getelementptr i8, ptr %3, i64 0
  %call = call i64 @pci_get_quad(ptr noundef %add.ptr1)
  %address = getelementptr inbounds %struct.MSIMessage, ptr %retval, i32 0, i32 0
  store i64 %call, ptr %address, align 8
  %4 = load ptr, ptr %table_entry, align 8
  %add.ptr2 = getelementptr i8, ptr %4, i64 8
  %call3 = call i32 @pci_get_long(ptr noundef %add.ptr2)
  %data = getelementptr inbounds %struct.MSIMessage, ptr %retval, i32 0, i32 1
  store i32 %call3, ptr %data, align 8
  %5 = load { i64, i32 }, ptr %retval, align 8
  ret { i64, i32 } %5
}

; Function Attrs: nounwind sspstrong uwtable
define dso_local zeroext i1 @msix_is_masked(ptr noundef %dev, i32 noundef %vector) #0 {
entry:
  %dev.addr = alloca ptr, align 8
  %vector.addr = alloca i32, align 4
  store ptr %dev, ptr %dev.addr, align 8
  store i32 %vector, ptr %vector.addr, align 4
  %0 = load ptr, ptr %dev.addr, align 8
  %1 = load i32, ptr %vector.addr, align 4
  %2 = load ptr, ptr %dev.addr, align 8
  %msix_function_masked = getelementptr inbounds %struct.PCIDevice, ptr %2, i32 0, i32 33
  %3 = load i8, ptr %msix_function_masked, align 8
  %tobool = trunc i8 %3 to i1
  %call = call zeroext i1 @msix_vector_masked(ptr noundef %0, i32 noundef %1, i1 noundef zeroext %tobool)
  ret i1 %call
}

; Function Attrs: nounwind sspstrong uwtable
define internal void @msix_handle_mask_update(ptr noundef %dev, i32 noundef %vector, i1 noundef zeroext %was_masked) #0 {
entry:
  %dev.addr = alloca ptr, align 8
  %vector.addr = alloca i32, align 4
  %was_masked.addr = alloca i8, align 1
  %is_masked = alloca i8, align 1
  %msg = alloca %struct.MSIMessage, align 8
  store ptr %dev, ptr %dev.addr, align 8
  store i32 %vector, ptr %vector.addr, align 4
  %frombool = zext i1 %was_masked to i8
  store i8 %frombool, ptr %was_masked.addr, align 1
  %0 = load ptr, ptr %dev.addr, align 8
  %1 = load i32, ptr %vector.addr, align 4
  %call = call zeroext i1 @msix_is_masked(ptr noundef %0, i32 noundef %1)
  %frombool1 = zext i1 %call to i8
  store i8 %frombool1, ptr %is_masked, align 1
  %2 = load i32, ptr @xen_mode, align 4
  %cmp = icmp eq i32 %2, 2
  br i1 %cmp, label %if.then, label %if.end

if.then:                                          ; preds = %entry
  %3 = load ptr, ptr %dev.addr, align 8
  %4 = load i32, ptr %vector.addr, align 4
  %call2 = call { i64, i32 } @msix_prepare_message(ptr noundef %3, i32 noundef %4)
  %5 = getelementptr inbounds { i64, i32 }, ptr %msg, i32 0, i32 0
  %6 = extractvalue { i64, i32 } %call2, 0
  store i64 %6, ptr %5, align 8
  %7 = getelementptr inbounds { i64, i32 }, ptr %msg, i32 0, i32 1
  %8 = extractvalue { i64, i32 } %call2, 1
  store i32 %8, ptr %7, align 8
  %9 = load ptr, ptr %dev.addr, align 8
  %10 = load i32, ptr %vector.addr, align 4
  %address = getelementptr inbounds %struct.MSIMessage, ptr %msg, i32 0, i32 0
  %11 = load i64, ptr %address, align 8
  %data = getelementptr inbounds %struct.MSIMessage, ptr %msg, i32 0, i32 1
  %12 = load i32, ptr %data, align 8
  %13 = load i8, ptr %is_masked, align 1
  %tobool = trunc i8 %13 to i1
  call void @xen_evtchn_snoop_msi(ptr noundef %9, i1 noundef zeroext true, i32 noundef %10, i64 noundef %11, i32 noundef %12, i1 noundef zeroext %tobool)
  br label %if.end

if.end:                                           ; preds = %if.then, %entry
  %14 = load i8, ptr %is_masked, align 1
  %tobool3 = trunc i8 %14 to i1
  %conv = zext i1 %tobool3 to i32
  %15 = load i8, ptr %was_masked.addr, align 1
  %tobool4 = trunc i8 %15 to i1
  %conv5 = zext i1 %tobool4 to i32
  %cmp6 = icmp eq i32 %conv, %conv5
  br i1 %cmp6, label %if.then8, label %if.end9

if.then8:                                         ; preds = %if.end
  br label %if.end15

if.end9:                                          ; preds = %if.end
  %16 = load ptr, ptr %dev.addr, align 8
  %17 = load i32, ptr %vector.addr, align 4
  %18 = load i8, ptr %is_masked, align 1
  %tobool10 = trunc i8 %18 to i1
  call void @msix_fire_vector_notifier(ptr noundef %16, i32 noundef %17, i1 noundef zeroext %tobool10)
  %19 = load i8, ptr %is_masked, align 1
  %tobool11 = trunc i8 %19 to i1
  br i1 %tobool11, label %if.end15, label %land.lhs.true

land.lhs.true:                                    ; preds = %if.end9
  %20 = load ptr, ptr %dev.addr, align 8
  %21 = load i32, ptr %vector.addr, align 4
  %call12 = call i32 @msix_is_pending(ptr noundef %20, i32 noundef %21)
  %tobool13 = icmp ne i32 %call12, 0
  br i1 %tobool13, label %if.then14, label %if.end15

if.then14:                                        ; preds = %land.lhs.true
  %22 = load ptr, ptr %dev.addr, align 8
  %23 = load i32, ptr %vector.addr, align 4
  call void @msix_clr_pending(ptr noundef %22, i32 noundef %23)
  %24 = load ptr, ptr %dev.addr, align 8
  %25 = load i32, ptr %vector.addr, align 4
  call void @msix_notify(ptr noundef %24, i32 noundef %25)
  br label %if.end15

if.end15:                                         ; preds = %if.then14, %land.lhs.true, %if.end9, %if.then8
  ret void
}