; Function Attrs: nounwind sspstrong uwtable
define internal fastcc void @msix_handle_mask_update(ptr noundef %dev, i32 noundef %vector, i1 noundef zeroext %was_masked) unnamed_addr #0 {
entry:
  %msix_function_masked.i = getelementptr inbounds nuw i8, ptr %dev, i64 2152
  %0 = load i8, ptr %msix_function_masked.i, align 8
  %tobool.i = trunc i8 %0 to i1
  %mul.i.i = shl i32 %vector, 4
  %msix_table.i.i = getelementptr inbounds nuw i8, ptr %dev, i64 1272
  %1 = load i8, ptr @xen_allowed, align 1
  %tobool.i.i = trunc i8 %1 to i1
  br i1 %tobool.i.i, label %land.lhs.true.i.i, label %if.end.i.i

land.lhs.true.i.i:                                ; preds = %entry
  %2 = load ptr, ptr %msix_table.i.i, align 8
  %add.i.i = or disjoint i32 %mul.i.i, 8
  %idxprom.i.i = zext i32 %add.i.i to i64
  %arrayidx.i.i = getelementptr i8, ptr %2, i64 %idxprom.i.i
  %arrayidx.val.i.i = load i32, ptr %arrayidx.i.i, align 1
  %call1.i.i = tail call i32 @xen_is_pirq_msi(i32 noundef %arrayidx.val.i.i) #14
  %tobool2.not.i.i = icmp ne i32 %call1.i.i, 0
  %brmerge.i.i = or i1 %tobool2.not.i.i, %tobool.i
  %not.tobool2.not.i.i = xor i1 %tobool2.not.i.i, true
  br i1 %brmerge.i.i, label %msix_is_masked.exit, label %lor.rhs.i.i

if.end.i.i:                                       ; preds = %entry
  br i1 %tobool.i, label %msix_is_masked.exit, label %lor.rhs.i.i

lor.rhs.i.i:                                      ; preds = %if.end.i.i, %land.lhs.true.i.i
  %3 = load ptr, ptr %msix_table.i.i, align 8
  %add5.i.i = or disjoint i32 %mul.i.i, 12
  %idxprom6.i.i = zext i32 %add5.i.i to i64
  %arrayidx7.i.i = getelementptr i8, ptr %3, i64 %idxprom6.i.i
  %4 = load i8, ptr %arrayidx7.i.i, align 1
  %5 = and i8 %4, 1
  %tobool8.i.i = icmp ne i8 %5, 0
  br label %msix_is_masked.exit

msix_is_masked.exit:                              ; preds = %land.lhs.true.i.i, %if.end.i.i, %lor.rhs.i.i
  %retval.0.i.i = phi i1 [ %not.tobool2.not.i.i, %land.lhs.true.i.i ], [ true, %if.end.i.i ], [ %tobool8.i.i, %lor.rhs.i.i ]
  %6 = load i32, ptr @xen_mode, align 4
  %cmp = icmp eq i32 %6, 2
  br i1 %cmp, label %if.then, label %if.end

if.then:                                          ; preds = %msix_is_masked.exit
  %7 = load ptr, ptr %msix_table.i.i, align 8
  %idx.ext.i = zext i32 %mul.i.i to i64
  %add.ptr.i = getelementptr i8, ptr %7, i64 %idx.ext.i
  %add.ptr.val.i = load i64, ptr %add.ptr.i, align 1
  %add.ptr2.i = getelementptr i8, ptr %add.ptr.i, i64 8
  %add.ptr2.val.i = load i32, ptr %add.ptr2.i, align 1
  tail call void @xen_evtchn_snoop_msi(ptr noundef nonnull %dev, i1 noundef zeroext true, i32 noundef %vector, i64 noundef %add.ptr.val.i, i32 noundef %add.ptr2.val.i, i1 noundef zeroext %retval.0.i.i) #14
  br label %if.end

if.end:                                           ; preds = %if.then, %msix_is_masked.exit
  %8 = xor i1 %was_masked, %retval.0.i.i
  br i1 %8, label %if.end9, label %if.end15

if.end9:                                          ; preds = %if.end
  %msix_vector_use_notifier.i = getelementptr inbounds nuw i8, ptr %dev, i64 2560
  %9 = load ptr, ptr %msix_vector_use_notifier.i, align 16
  %tobool.not.i = icmp eq ptr %9, null
  br i1 %tobool.not.i, label %msix_fire_vector_notifier.exit, label %if.end.i

if.end.i:                                         ; preds = %if.end9
  br i1 %retval.0.i.i, label %msix_fire_vector_notifier.exit.thread, label %if.else.i

msix_fire_vector_notifier.exit.thread:            ; preds = %if.end.i
  %msix_vector_release_notifier.i = getelementptr inbounds nuw i8, ptr %dev, i64 2568
  %10 = load ptr, ptr %msix_vector_release_notifier.i, align 8
  tail call void %10(ptr noundef nonnull %dev, i32 noundef %vector) #14
  br label %if.end15

if.else.i:                                        ; preds = %if.end.i
  %msix_prepare_message.i.i = getelementptr inbounds nuw i8, ptr %dev, i64 1312
  %11 = load ptr, ptr %msix_prepare_message.i.i, align 16
  %call.i.i = tail call { i64, i32 } %11(ptr noundef nonnull %dev, i32 noundef %vector) #14
  %12 = extractvalue { i64, i32 } %call.i.i, 0
  %13 = extractvalue { i64, i32 } %call.i.i, 1
  %14 = load ptr, ptr %msix_vector_use_notifier.i, align 16
  %call4.i = tail call i32 %14(ptr noundef nonnull %dev, i32 noundef %vector, i64 %12, i32 %13) #14
  %cmp.i = icmp sgt i32 %call4.i, -1
  br i1 %cmp.i, label %land.lhs.true, label %if.else6.i

if.else6.i:                                       ; preds = %if.else.i
  tail call void @__assert_fail(ptr noundef nonnull @.str.11, ptr noundef nonnull @.str.1, i32 noundef 121, ptr noundef nonnull @__PRETTY_FUNCTION__.msix_fire_vector_notifier) #15
  unreachable

msix_fire_vector_notifier.exit:                   ; preds = %if.end9
  br i1 %retval.0.i.i, label %if.end15, label %land.lhs.true

land.lhs.true:                                    ; preds = %if.else.i, %msix_fire_vector_notifier.exit
  %15 = getelementptr i8, ptr %dev, i64 1280
  %dev.val = load ptr, ptr %15, align 16
  %div.i.i = sdiv i32 %vector, 8
  %idx.ext.i.i = sext i32 %div.i.i to i64
  %add.ptr.i.i = getelementptr i8, ptr %dev.val, i64 %idx.ext.i.i
  %16 = load i8, ptr %add.ptr.i.i, align 1
  %rem1.i.i = and i32 %vector, 7
  %shl.i.i = shl nuw nsw i32 1, %rem1.i.i
  %conv.i.i = trunc nuw i32 %shl.i.i to i8
  %and2.i = and i8 %16, %conv.i.i
  %tobool13.not = icmp eq i8 %and2.i, 0
  br i1 %tobool13.not, label %if.end15, label %if.then14

if.then14:                                        ; preds = %land.lhs.true
  %not.i = xor i8 %conv.i.i, -1
  %and.i22 = and i8 %16, %not.i
  store i8 %and.i22, ptr %add.ptr.i.i, align 1
  tail call void @msix_notify(ptr noundef nonnull %dev, i32 noundef %vector)
  br label %if.end15

if.end15:                                         ; preds = %msix_fire_vector_notifier.exit.thread, %if.end, %if.then14, %land.lhs.true, %msix_fire_vector_notifier.exit
  ret void
}